target datalayout = "e-m:e-p270:32:32-p271:32:32-p272:64:64-i64:64-i128:128-f80:128-n8:16:32:64-S128"
target triple = "x86_64-pc-linux-gnu"

%struct.repository = type { ptr, ptr, ptr, ptr, ptr, %struct.strmap, %struct.strmap, %struct.repo_path_cache, ptr, ptr, ptr, ptr, %struct.repo_settings, ptr, ptr, ptr, ptr, ptr, ptr, i32, i32, i32, ptr, ptr, i32, i32, i8 }
%struct.strmap = type { %struct.hashmap, ptr, i8 }
%struct.hashmap = type { ptr, ptr, ptr, i32, i32, i32, i32, i8 }
%struct.repo_path_cache = type { ptr, ptr, ptr, ptr, ptr, ptr, ptr }
%struct.repo_settings = type { i32, i32, i32, i32, i32, i32, i32, i32, i32, i32, i32, i32, ptr, i32, i32, i32, i32, i32, i32, i32, i64, i64, i64 }
%struct.strbuf = type { i64, i64, ptr }
%struct.submodule = type { ptr, ptr, ptr, i32, ptr, ptr, %struct.submodule_update_strategy, %struct.object_id, i32 }
%struct.submodule_update_strategy = type { i32, ptr }
%struct.object_id = type { [32 x i8], i32 }

@strbuf_slopbuf = external global [0 x i8], align 1
@__const.repo_submodule_init.gitdir = private unnamed_addr constant %struct.strbuf { i64 0, i64 0, ptr @strbuf_slopbuf }, align 8
@__const.repo_submodule_init.worktree = private unnamed_addr constant %struct.strbuf { i64 0, i64 0, ptr @strbuf_slopbuf }, align 8
@.str.6 = private unnamed_addr constant [8 x i8] c"%s/.git\00", align 1
@.str.7 = private unnamed_addr constant [3 x i8] c"%s\00", align 1
@.str.8 = private unnamed_addr constant [6 x i8] c"%s%s/\00", align 1
@.str.9 = private unnamed_addr constant [1 x i8] zeroinitializer, align 1
@.str.16 = private unnamed_addr constant [11 x i8] c"./strbuf.h\00", align 1
@.str.17 = private unnamed_addr constant [30 x i8] c"strbuf_setlen() beyond buffer\00", align 1

; Function Attrs: inlinehint nounwind uwtable
define internal void @strbuf_setlen(ptr noundef %0, i64 noundef %1) #2 {
  %3 = alloca ptr, align 8
  %4 = alloca i64, align 8
  store ptr %0, ptr %3, align 8, !tbaa !115
  store i64 %1, ptr %4, align 8, !tbaa !33
  %5 = load i64, ptr %4, align 8, !tbaa !33
  %6 = load ptr, ptr %3, align 8, !tbaa !115
  %7 = getelementptr inbounds nuw %struct.strbuf, ptr %6, i32 0, i32 0
  %8 = load i64, ptr %7, align 8, !tbaa !117
  %9 = icmp ne i64 %8, 0
  br i1 %9, label %10, label %15

10:                                               ; preds = %2
  %11 = load ptr, ptr %3, align 8, !tbaa !115
  %12 = getelementptr inbounds nuw %struct.strbuf, ptr %11, i32 0, i32 0
  %13 = load i64, ptr %12, align 8, !tbaa !117
  %14 = sub i64 %13, 1
  br label %16

15:                                               ; preds = %2
  br label %16

16:                                               ; preds = %15, %10
  %17 = phi i64 [ %14, %10 ], [ 0, %15 ]
  %18 = icmp ugt i64 %5, %17
  br i1 %18, label %19, label %20

19:                                               ; preds = %16
  call void (ptr, i32, ptr, ...) @BUG_fl(ptr noundef @.str.16, i32 noundef 167, ptr noundef @.str.17) #8
  unreachable

20:                                               ; preds = %16
  %21 = load i64, ptr %4, align 8, !tbaa !33
  %22 = load ptr, ptr %3, align 8, !tbaa !115
  %23 = getelementptr inbounds nuw %struct.strbuf, ptr %22, i32 0, i32 1
  store i64 %21, ptr %23, align 8, !tbaa !118
  %24 = load ptr, ptr %3, align 8, !tbaa !115
  %25 = getelementptr inbounds nuw %struct.strbuf, ptr %24, i32 0, i32 2
  %26 = load ptr, ptr %25, align 8, !tbaa !92
  %27 = icmp ne ptr %26, @strbuf_slopbuf
  br i1 %27, label %28, label %34

28:                                               ; preds = %20
  %29 = load ptr, ptr %3, align 8, !tbaa !115
  %30 = getelementptr inbounds nuw %struct.strbuf, ptr %29, i32 0, i32 2
  %31 = load ptr, ptr %30, align 8, !tbaa !92
  %32 = load i64, ptr %4, align 8, !tbaa !33
  %33 = getelementptr inbounds nuw i8, ptr %31, i64 %32
  store i8 0, ptr %33, align 1, !tbaa !119
  br label %35

34:                                               ; preds = %20
  br label %35

35:                                               ; preds = %34, %28
  ret void
}

; Function Attrs: nounwind uwtable
define dso_local i32 @repo_submodule_init(ptr noundef %0, ptr noundef %1, ptr noundef %2, ptr noundef %3) #0 {
  %5 = alloca i32, align 4
  %6 = alloca ptr, align 8
  %7 = alloca ptr, align 8
  %8 = alloca ptr, align 8
  %9 = alloca ptr, align 8
  %10 = alloca %struct.strbuf, align 8
  %11 = alloca %struct.strbuf, align 8
  %12 = alloca i32, align 4
  %13 = alloca ptr, align 8
  %14 = alloca i32, align 4
  store ptr %0, ptr %6, align 8, !tbaa !4
  store ptr %1, ptr %7, align 8, !tbaa !4
  store ptr %2, ptr %8, align 8, !tbaa !34
  store ptr %3, ptr %9, align 8, !tbaa !107
  call void @llvm.lifetime.start.p0(i64 24, ptr %10) #9
  call void @llvm.memcpy.p0.p0.i64(ptr align 8 %10, ptr align 8 @__const.repo_submodule_init.gitdir, i64 24, i1 false)
  call void @llvm.lifetime.start.p0(i64 24, ptr %11) #9
  call void @llvm.memcpy.p0.p0.i64(ptr align 8 %11, ptr align 8 @__const.repo_submodule_init.worktree, i64 24, i1 false)
  call void @llvm.lifetime.start.p0(i64 4, ptr %12) #9
  store i32 0, ptr %12, align 4, !tbaa !35
  %15 = load ptr, ptr %7, align 8, !tbaa !4
  %16 = load ptr, ptr %8, align 8, !tbaa !34
  call void (ptr, ptr, ptr, ...) @strbuf_repo_worktree_path(ptr noundef %10, ptr noundef %15, ptr noundef @.str.6, ptr noundef %16)
  %17 = load ptr, ptr %7, align 8, !tbaa !4
  %18 = load ptr, ptr %8, align 8, !tbaa !34
  call void (ptr, ptr, ptr, ...) @strbuf_repo_worktree_path(ptr noundef %11, ptr noundef %17, ptr noundef @.str.7, ptr noundef %18)
  %19 = load ptr, ptr %6, align 8, !tbaa !4
  %20 = getelementptr inbounds nuw %struct.strbuf, ptr %10, i32 0, i32 2
  %21 = load ptr, ptr %20, align 8, !tbaa !92
  %22 = getelementptr inbounds nuw %struct.strbuf, ptr %11, i32 0, i32 2
  %23 = load ptr, ptr %22, align 8, !tbaa !92
  %24 = call i32 @repo_init(ptr noundef %19, ptr noundef %21, ptr noundef %23)
  %25 = icmp ne i32 %24, 0
  br i1 %25, label %26, label %49

26:                                               ; preds = %4
  call void @llvm.lifetime.start.p0(i64 8, ptr %13) #9
  %27 = load ptr, ptr %7, align 8, !tbaa !4
  %28 = load ptr, ptr %9, align 8, !tbaa !107
  %29 = load ptr, ptr %8, align 8, !tbaa !34
  %30 = call ptr @submodule_from_path(ptr noundef %27, ptr noundef %28, ptr noundef %29)
  store ptr %30, ptr %13, align 8, !tbaa !109
  %31 = load ptr, ptr %13, align 8, !tbaa !109
  %32 = icmp ne ptr %31, null
  br i1 %32, label %34, label %33

33:                                               ; preds = %26
  store i32 -1, ptr %12, align 4, !tbaa !35
  store i32 2, ptr %14, align 4
  br label %46

34:                                               ; preds = %26
  call void @strbuf_setlen(ptr noundef %10, i64 noundef 0)
  %35 = load ptr, ptr %7, align 8, !tbaa !4
  %36 = load ptr, ptr %13, align 8, !tbaa !109
  %37 = getelementptr inbounds nuw %struct.submodule, ptr %36, i32 0, i32 1
  %38 = load ptr, ptr %37, align 8, !tbaa !111
  call void @submodule_name_to_gitdir(ptr noundef %10, ptr noundef %35, ptr noundef %38)
  %39 = load ptr, ptr %6, align 8, !tbaa !4
  %40 = getelementptr inbounds nuw %struct.strbuf, ptr %10, i32 0, i32 2
  %41 = load ptr, ptr %40, align 8, !tbaa !92
  %42 = call i32 @repo_init(ptr noundef %39, ptr noundef %41, ptr noundef null)
  %43 = icmp ne i32 %42, 0
  br i1 %43, label %44, label %45

44:                                               ; preds = %34
  store i32 -1, ptr %12, align 4, !tbaa !35
  store i32 2, ptr %14, align 4
  br label %46

45:                                               ; preds = %34
  store i32 0, ptr %14, align 4
  br label %46

46:                                               ; preds = %44, %33, %45
  call void @llvm.lifetime.end.p0(i64 8, ptr %13) #9
  %47 = load i32, ptr %14, align 4
  switch i32 %47, label %67 [
    i32 0, label %48
    i32 2, label %65
  ]

48:                                               ; preds = %46
  br label %49

49:                                               ; preds = %48, %4
  %50 = load ptr, ptr %7, align 8, !tbaa !4
  %51 = getelementptr inbounds nuw %struct.repository, ptr %50, i32 0, i32 11
  %52 = load ptr, ptr %51, align 8, !tbaa !94
  %53 = icmp ne ptr %52, null
  br i1 %53, label %54, label %58

54:                                               ; preds = %49
  %55 = load ptr, ptr %7, align 8, !tbaa !4
  %56 = getelementptr inbounds nuw %struct.repository, ptr %55, i32 0, i32 11
  %57 = load ptr, ptr %56, align 8, !tbaa !94
  br label %59

58:                                               ; preds = %49
  br label %59

59:                                               ; preds = %58, %54
  %60 = phi ptr [ %57, %54 ], [ @.str.9, %58 ]
  %61 = load ptr, ptr %8, align 8, !tbaa !34
  %62 = call ptr (ptr, ...) @xstrfmt(ptr noundef @.str.8, ptr noundef %60, ptr noundef %61)
  %63 = load ptr, ptr %6, align 8, !tbaa !4
  %64 = getelementptr inbounds nuw %struct.repository, ptr %63, i32 0, i32 11
  store ptr %62, ptr %64, align 8, !tbaa !94
  br label %65

65:                                               ; preds = %59, %46
  call void @strbuf_release(ptr noundef %10)
  call void @strbuf_release(ptr noundef %11)
  %66 = load i32, ptr %12, align 4, !tbaa !35
  store i32 %66, ptr %5, align 4
  store i32 1, ptr %14, align 4
  br label %67

67:                                               ; preds = %65, %46
  call void @llvm.lifetime.end.p0(i64 4, ptr %12) #9
  call void @llvm.lifetime.end.p0(i64 24, ptr %11) #9
  call void @llvm.lifetime.end.p0(i64 24, ptr %10) #9
  %68 = load i32, ptr %5, align 4
  ret i32 %68
}