; Function Attrs: nounwind uwtable
define dso_local range(i32 -1, 1) i32 @repo_submodule_init(ptr noundef initializes((0, 464)) %0, ptr noundef %1, ptr noundef %2, ptr noundef %3) local_unnamed_addr #0 {
  %5 = alloca %struct.strbuf, align 8
  %6 = alloca %struct.strbuf, align 8
  call void @llvm.lifetime.start.p0(i64 24, ptr nonnull %5) #10
  call void @llvm.memcpy.p0.p0.i64(ptr noundef nonnull align 8 dereferenceable(24) %5, ptr noundef nonnull align 8 dereferenceable(24) @__const.read_and_verify_repository_format.sb, i64 24, i1 false)
  call void @llvm.lifetime.start.p0(i64 24, ptr nonnull %6) #10
  call void @llvm.memcpy.p0.p0.i64(ptr noundef nonnull align 8 dereferenceable(24) %6, ptr noundef nonnull align 8 dereferenceable(24) @__const.read_and_verify_repository_format.sb, i64 24, i1 false)
  call void (ptr, ptr, ptr, ...) @strbuf_repo_worktree_path(ptr noundef nonnull %5, ptr noundef %1, ptr noundef nonnull @.str.6, ptr noundef %2) #10
  call void (ptr, ptr, ptr, ...) @strbuf_repo_worktree_path(ptr noundef nonnull %6, ptr noundef %1, ptr noundef nonnull @.str.7, ptr noundef %2) #10
  %7 = getelementptr inbounds nuw i8, ptr %5, i64 16
  %8 = load ptr, ptr %7, align 8, !tbaa !72
  %9 = getelementptr inbounds nuw i8, ptr %6, i64 16
  %10 = load ptr, ptr %9, align 8, !tbaa !72
  %11 = call i32 @repo_init(ptr noundef %0, ptr noundef %8, ptr noundef %10)
  %.not = icmp eq i32 %11, 0
  br i1 %.not, label %22, label %12

12:                                               ; preds = %4
  %13 = call ptr @submodule_from_path(ptr noundef %1, ptr noundef %3, ptr noundef %2) #10
  %.not22 = icmp eq ptr %13, null
  br i1 %.not22, label %.thread, label %14

14:                                               ; preds = %12
  %15 = getelementptr inbounds nuw i8, ptr %5, i64 8
  store i64 0, ptr %15, align 8, !tbaa !74
  %16 = load ptr, ptr %7, align 8, !tbaa !72
  %.not9.i = icmp eq ptr %16, @strbuf_slopbuf
  br i1 %.not9.i, label %strbuf_setlen.exit, label %17

17:                                               ; preds = %14
  store i8 0, ptr %16, align 1, !tbaa !75
  br label %strbuf_setlen.exit

strbuf_setlen.exit:                               ; preds = %14, %17
  %18 = getelementptr inbounds nuw i8, ptr %13, i64 8
  %19 = load ptr, ptr %18, align 8, !tbaa !106
  call void @submodule_name_to_gitdir(ptr noundef nonnull %5, ptr noundef %1, ptr noundef %19) #10
  %20 = load ptr, ptr %7, align 8, !tbaa !72
  %21 = call i32 @repo_init(ptr noundef %0, ptr noundef %20, ptr noundef null)
  %.not23 = icmp eq i32 %21, 0
  br i1 %.not23, label %22, label %.thread

22:                                               ; preds = %strbuf_setlen.exit, %4
  %23 = getelementptr inbounds nuw i8, ptr %1, i64 248
  %24 = load ptr, ptr %23, align 8, !tbaa !88
  %.not24 = icmp eq ptr %24, null
  %spec.select = select i1 %.not24, ptr @.str.9, ptr %24
  %25 = call ptr (ptr, ...) @xstrfmt(ptr noundef nonnull @.str.8, ptr noundef nonnull %spec.select, ptr noundef %2) #10
  %26 = getelementptr inbounds nuw i8, ptr %0, i64 248
  store ptr %25, ptr %26, align 8, !tbaa !88
  br label %.thread

.thread:                                          ; preds = %strbuf_setlen.exit, %12, %22
  %.2 = phi i32 [ 0, %22 ], [ -1, %strbuf_setlen.exit ], [ -1, %12 ]
  call void @strbuf_release(ptr noundef nonnull %5) #10
  call void @strbuf_release(ptr noundef nonnull %6) #10
  call void @llvm.lifetime.end.p0(i64 24, ptr nonnull %6) #10
  call void @llvm.lifetime.end.p0(i64 24, ptr nonnull %5) #10
  ret i32 %.2
}